(dp0
S'METTS MARK'
p1
(dp2
S'salary'
p3
I365788
sS'to_messages'
p4
I807
sS'deferral_payments'
p5
I0
sS'total_payments'
p6
I1061827
sS'long_term_incentive'
p7
I0
sS'loan_advances'
p8
I0
sS'bonus'
p9
I600000
sS'restricted_stock'
p10
I585062
sS'restricted_stock_deferred'
p11
I0
sS'total_stock_value'
p12
I585062
sS'expenses'
p13
I94299
sS'from_poi_to_this_person'
p14
I38
sS'exercised_stock_options'
p15
I0
sS'from_messages'
p16
I29
sS'other'
p17
I1740
sS'from_this_person_to_poi'
p18
I1
sS'poi'
p19
I00
sS'deferred_income'
p20
I0
sS'shared_receipt_with_poi'
p21
I702
sS'email_address'
p22
S'mark.metts@enron.com'
p23
sS'director_fees'
p24
I0
ssS'BAXTER JOHN C'
p25
(dp26
g3
I267102
sg4
I0
sg5
I1295738
sg6
I5634343
sg7
I1586055
sg8
I0
sg9
I1200000
sg10
I3942714
sg11
I0
sg12
I10623258
sg13
I11200
sg14
I0
sg15
I6680544
sg16
I0
sg17
I2660303
sg18
I0
sg19
I00
sg20
I-1386055
sg21
I0
sg22
I0
sg24
I0
ssS'ELLIOTT STEVEN'
p27
(dp28
g3
I170941
sg4
I0
sg5
I0
sg6
I211725
sg7
I0
sg8
I0
sg9
I350000
sg10
I1788391
sg11
I0
sg12
I6678735
sg13
I78552
sg14
I0
sg15
I4890344
sg16
I0
sg17
I12961
sg18
I0
sg19
I00
sg20
I-400729
sg21
I0
sg22
S'steven.elliott@enron.com'
p29
sg24
I0
ssS'CORDES WILLIAM R'
p30
(dp31
g3
I0
sg4
I764
sg5
I0
sg6
I0
sg7
I0
sg8
I0
sg9
I0
sg10
I386335
sg11
I0
sg12
I1038185
sg13
I0
sg14
I10
sg15
I651850
sg16
I12
sg17
I0
sg18
I0
sg19
I00
sg20
I0
sg21
I58
sg22
S'bill.cordes@enron.com'
p32
sg24
I0
ssS'HANNON KEVIN P'
p33
(dp34
g4
I1045
sS'non_poi_bonus_to_total_payments_ratio'
p35
F5.196028848352166
sg5
I0
sg9
I1500000
sg20
I-3117011
sg12
I6391065
sg13
I34039
sS'non_poi_expenses_to_total_payments_ratio'
p36
F0.11791175064603959
sg18
I21
sg19
I01
sg7
I1617011
sg10
I853064
sg14
I32
sg3
I243293
sS'non_poi_restricted_stock_to_total_stock_value_ratio'
p37
F0.13347759723927077
sS'restricted_stock_to_total_stock_value_ratio'
p38
F0.13347759723927077
sg6
I288682
sg15
I5538001
sg22
S'kevin.hannon@enron.com'
p39
sg11
I0
sg21
I1035
sg8
I0
sg16
I32
sg17
I11350
sS'expenses_to_total_payments_ratio'
p40
F0.11791175064603959
sS'bonus_to_total_payments_ratio'
p41
F5.196028848352166
sg24
I0
ssS'MORDAUNT KRISTINA M'
p42
(dp43
g3
I267093
sg4
I0
sg5
I0
sg6
I628522
sg7
I0
sg8
I0
sg9
I325000
sg10
I208510
sg11
I0
sg12
I208510
sg13
I35018
sg14
I0
sg15
I0
sg16
I0
sg17
I1411
sg18
I0
sg19
I00
sg20
I0
sg21
I0
sg22
S'kristina.mordaunt@enron.com'
p44
sg24
I0
ssS'MEYER ROCKFORD G'
p45
(dp46
g3
I0
sg4
I232
sg5
I1848227
sg6
I1848227
sg7
I0
sg8
I0
sg9
I0
sg10
I462384
sg11
I0
sg12
I955873
sg13
I0
sg14
I0
sg15
I493489
sg16
I28
sg17
I0
sg18
I0
sg19
I00
sg20
I0
sg21
I22
sg22
S'rockford.meyer@enron.com'
p47
sg24
I0
ssS'MCMAHON JEFFREY'
p48
(dp49
g3
I370448
sg4
I2355
sg5
I0
sg6
I4099771
sg7
I694862
sg8
I0
sg9
I2600000
sg10
I558801
sg11
I0
sg12
I1662855
sg13
I137108
sg14
I58
sg15
I1104054
sg16
I48
sg17
I297353
sg18
I26
sg19
I00
sg20
I0
sg21
I2228
sg22
S'jeffrey.mcmahon@enron.com'
p50
sg24
I0
ssS'HAEDICKE MARK E'
p51
(dp52
g3
I374125
sg4
I4009
sg5
I2157527
sg6
I3859065
sg7
I983346
sg8
I0
sg9
I1150000
sg10
I524169
sg11
I-329825
sg12
I803094
sg13
I76169
sg14
I180
sg15
I608750
sg16
I1941
sg17
I52382
sg18
I61
sg19
I00
sg20
I-934484
sg21
I1847
sg22
S'mark.haedicke@enron.com'
p53
sg24
I0
ssS'PIPER GREGORY F'
p54
(dp55
g3
I197091
sg4
I1238
sg5
I1130036
sg6
I1737629
sg7
I0
sg8
I0
sg9
I400000
sg10
I409554
sg11
I-409554
sg12
I880290
sg13
I43057
sg14
I61
sg15
I880290
sg16
I222
sg17
I778
sg18
I48
sg19
I00
sg20
I-33333
sg21
I742
sg22
S'greg.piper@enron.com'
p56
sg24
I0
ssS'HUMPHREY GENE E'
p57
(dp58
g3
I130724
sg4
I128
sg5
I2964506
sg6
I3100224
sg7
I0
sg8
I0
sg9
I0
sg10
I0
sg11
I0
sg12
I2282768
sg13
I4994
sg14
I10
sg15
I2282768
sg16
I17
sg17
I0
sg18
I17
sg19
I00
sg20
I0
sg21
I119
sg22
S'gene.humphrey@enron.com'
p59
sg24
I0
ssS'NOLES JAMES L'
p60
(dp61
g3
I0
sg4
I0
sg5
I774401
sg6
I774401
sg7
I0
sg8
I0
sg9
I0
sg10
I463261
sg11
I-94556
sg12
I368705
sg13
I0
sg14
I0
sg15
I0
sg16
I0
sg17
I0
sg18
I0
sg19
I00
sg20
I0
sg21
I0
sg22
I0
sg24
I0
ssS'BLACHMAN JEREMY M'
p62
(dp63
g3
I248546
sg4
I2475
sg5
I0
sg6
I2014835
sg7
I831809
sg8
I0
sg9
I850000
sg10
I189041
sg11
I0
sg12
I954354
sg13
I84208
sg14
I25
sg15
I765313
sg16
I14
sg17
I272
sg18
I2
sg19
I00
sg20
I0
sg21
I2326
sg22
S'jeremy.blachman@enron.com'
p64
sg24
I0
ssS'SUNDE MARTIN'
p65
(dp66
g3
I257486
sg4
I2647
sg5
I0
sg6
I1545059
sg7
I476451
sg8
I0
sg9
I700000
sg10
I698920
sg11
I0
sg12
I698920
sg13
I0
sg14
I37
sg15
I0
sg16
I38
sg17
I111122
sg18
I13
sg19
I00
sg20
I0
sg21
I2565
sg22
S'marty.sunde@enron.com'
p67
sg24
I0
ssS'GIBBS DANA R'
p68
(dp69
g3
I0
sg4
I169
sg5
I504610
sg6
I966522
sg7
I461912
sg8
I0
sg9
I0
sg10
I0
sg11
I0
sg12
I2218275
sg13
I0
sg14
I0
sg15
I2218275
sg16
I12
sg17
I0
sg18
I0
sg19
I00
sg20
I0
sg21
I23
sg22
S'dana.gibbs@enron.com'
p70
sg24
I0
ssS'LOWRY CHARLES P'
p71
(dp72
g3
I0
sg4
I0
sg5
I0
sg6
I0
sg7
I0
sg8
I0
sg9
I0
sg10
I153686
sg11
I-153686
sg12
I372205
sg13
I0
sg14
I0
sg15
I372205
sg16
I0
sg17
I0
sg18
I0
sg19
I00
sg20
I0
sg21
I0
sg22
I0
sg24
I0
ssS'COLWELL WESLEY'
p73
(dp74
g4
I1758
sg35
F0.8051832328643588
sg5
I27610
sg9
I1200000
sg20
I-144062
sg12
I698242
sg13
I16514
sg36
F0.011080663256268351
sg18
I11
sg19
I01
sg7
I0
sg10
I698242
sg14
I240
sg3
I288542
sg37
F1.0
sg38
F1.0
sg6
I1490344
sg15
I0
sg22
S'wes.colwell@enron.com'
p75
sg11
I0
sg21
I1132
sg8
I0
sg16
I40
sg17
I101740
sg40
F0.011080663256268351
sg41
F0.8051832328643588
sg24
I0
ssS'MULLER MARK S'
p76
(dp77
g3
I251654
sg4
I136
sg5
I842924
sg6
I3202070
sg7
I1725545
sg8
I0
sg9
I1100000
sg10
I360528
sg11
I0
sg12
I1416848
sg13
I0
sg14
I12
sg15
I1056320
sg16
I16
sg17
I947
sg18
I0
sg19
I00
sg20
I-719000
sg21
I114
sg22
S's..muller@enron.com'
p78
sg24
I0
ssS'JACKSON CHARLENE R'
p79
(dp80
g3
I288558
sg4
I258
sg5
I0
sg6
I551174
sg7
I0
sg8
I0
sg9
I250000
sg10
I540672
sg11
I0
sg12
I725735
sg13
I10181
sg14
I25
sg15
I185063
sg16
I56
sg17
I2435
sg18
I19
sg19
I00
sg20
I0
sg21
I117
sg22
S'charlene.jackson@enron.com'
p81
sg24
I0
ssS'WESTFAHL RICHARD K'
p82
(dp83
g3
I63744
sg4
I0
sg5
I0
sg6
I762135
sg7
I256191
sg8
I0
sg9
I0
sg10
I384930
sg11
I0
sg12
I384930
sg13
I51870
sg14
I0
sg15
I0
sg16
I0
sg17
I401130
sg18
I0
sg19
I00
sg20
I-10800
sg21
I0
sg22
S'dick.westfahl@enron.com'
p84
sg24
I0
ssS'WALTERS GARETH W'
p85
(dp86
g3
I0
sg4
I0
sg5
I53625
sg6
I87410
sg7
I0
sg8
I0
sg9
I0
sg10
I0
sg11
I0
sg12
I1030329
sg13
I33785
sg14
I0
sg15
I1030329
sg16
I0
sg17
I0
sg18
I0
sg19
I00
sg20
I0
sg21
I0
sg22
I0
sg24
I0
ssS'WALLS JR ROBERT H'
p87
(dp88
g3
I357091
sg4
I671
sg5
I0
sg6
I1798780
sg7
I540751
sg8
I0
sg9
I850000
sg10
I1552453
sg11
I0
sg12
I5898997
sg13
I50936
sg14
I17
sg15
I4346544
sg16
I146
sg17
I2
sg18
I0
sg19
I00
sg20
I0
sg21
I215
sg22
S'rob.walls@enron.com'
p89
sg24
I0
ssS'KITCHEN LOUISE'
p90
(dp91
g3
I271442
sg4
I8305
sg5
I0
sg6
I3471141
sg7
I0
sg8
I0
sg9
I3100000
sg10
I466101
sg11
I0
sg12
I547143
sg13
I5774
sg14
I251
sg15
I81042
sg16
I1728
sg17
I93925
sg18
I194
sg19
I00
sg20
I0
sg21
I3669
sg22
S'louise.kitchen@enron.com'
p92
sg24
I0
ssS'CHAN RONNIE'
p93
(dp94
g3
I0
sg4
I0
sg5
I0
sg6
I0
sg7
I0
sg8
I0
sg9
I0
sg10
I32460
sg11
I-32460
sg12
I0
sg13
I0
sg14
I0
sg15
I0
sg16
I0
sg17
I0
sg18
I0
sg19
I00
sg20
I-98784
sg21
I0
sg22
I0
sg24
I98784
ssS'BELFER ROBERT'
p95
(dp96
g3
I0
sg4
I0
sg5
I-102500
sg6
I102500
sg7
I0
sg8
I0
sg9
I0
sg10
I0
sg11
I44093
sg12
I-44093
sg13
I0
sg14
I0
sg15
I3285
sg16
I0
sg17
I0
sg18
I0
sg19
I00
sg20
I0
sg21
I0
sg22
I0
sg24
I3285
ssS'SHANKMAN JEFFREY A'
p97
(dp98
g3
I304110
sg4
I3221
sg5
I0
sg6
I3038702
sg7
I554422
sg8
I0
sg9
I2000000
sg10
I630137
sg11
I0
sg12
I2072035
sg13
I178979
sg14
I94
sg15
I1441898
sg16
I2681
sg17
I1191
sg18
I83
sg19
I00
sg20
I0
sg21
I1730
sg22
S'jeffrey.shankman@enron.com'
p99
sg24
I0
ssS'WODRASKA JOHN'
p100
(dp101
g3
I0
sg4
I0
sg5
I0
sg6
I189583
sg7
I0
sg8
I0
sg9
I0
sg10
I0
sg11
I0
sg12
I0
sg13
I0
sg14
I0
sg15
I0
sg16
I0
sg17
I189583
sg18
I0
sg19
I00
sg20
I0
sg21
I0
sg22
S'john.wodraska@enron.com'
p102
sg24
I0
ssS'BERGSIEKER RICHARD P'
p103
(dp104
g3
I187922
sg4
I383
sg5
I0
sg6
I618850
sg7
I180250
sg8
I0
sg9
I250000
sg10
I659249
sg11
I0
sg12
I659249
sg13
I59175
sg14
I4
sg15
I0
sg16
I59
sg17
I427316
sg18
I0
sg19
I00
sg20
I-485813
sg21
I233
sg22
S'rick.bergsieker@enron.com'
p105
sg24
I0
ssS'URQUHART JOHN A'
p106
(dp107
g3
I0
sg4
I0
sg5
I0
sg6
I228656
sg7
I0
sg8
I0
sg9
I0
sg10
I0
sg11
I0
sg12
I0
sg13
I228656
sg14
I0
sg15
I0
sg16
I0
sg17
I0
sg18
I0
sg19
I00
sg20
I-36666
sg21
I0
sg22
I0
sg24
I36666
ssS'BIBI PHILIPPE A'
p108
(dp109
g3
I213625
sg4
I1607
sg5
I0
sg6
I2047593
sg7
I369721
sg8
I0
sg9
I1000000
sg10
I378082
sg11
I0
sg12
I1843816
sg13
I38559
sg14
I23
sg15
I1465734
sg16
I40
sg17
I425688
sg18
I8
sg19
I00
sg20
I0
sg21
I1336
sg22
S'philippe.bibi@enron.com'
p110
sg24
I0
ssS'RIEKER PAULA H'
p111
(dp112
g4
I1328
sg35
F0.6368847238649804
sg5
I214678
sg9
I700000
sg20
I-100000
sg12
I1918887
sg13
I33271
sg36
F0.03027113092530252
sg18
I48
sg19
I01
sg7
I0
sg10
I283649
sg14
I35
sg3
I249201
sg37
F0.14781954330817812
sg38
F0.14781954330817812
sg6
I1099100
sg15
I1635238
sg22
S'paula.rieker@enron.com'
p113
sg11
I0
sg21
I1258
sg8
I0
sg16
I82
sg17
I1950
sg40
F0.03027113092530252
sg41
F0.6368847238649804
sg24
I0
ssS'WHALEY DAVID A'
p114
(dp115
g3
I0
sg4
I0
sg5
I0
sg6
I0
sg7
I0
sg8
I0
sg9
I0
sg10
I0
sg11
I0
sg12
I98718
sg13
I0
sg14
I0
sg15
I98718
sg16
I0
sg17
I0
sg18
I0
sg19
I00
sg20
I0
sg21
I0
sg22
I0
sg24
I0
ssS'BECK SALLY W'
p116
(dp117
g3
I231330
sg4
I7315
sg5
I0
sg6
I969068
sg7
I0
sg8
I0
sg9
I700000
sg10
I126027
sg11
I0
sg12
I126027
sg13
I37172
sg14
I144
sg15
I0
sg16
I4343
sg17
I566
sg18
I386
sg19
I00
sg20
I0
sg21
I2639
sg22
S'sally.beck@enron.com'
p118
sg24
I0
ssS'HAUG DAVID L'
p119
(dp120
g3
I0
sg4
I573
sg5
I0
sg6
I475
sg7
I0
sg8
I0
sg9
I0
sg10
I2217299
sg11
I0
sg12
I2217299
sg13
I475
sg14
I4
sg15
I0
sg16
I19
sg17
I0
sg18
I7
sg19
I00
sg20
I0
sg21
I471
sg22
S'david.haug@enron.com'
p121
sg24
I0
ssS'ECHOLS JOHN B'
p122
(dp123
g3
I182245
sg4
I0
sg5
I0
sg6
I2692324
sg7
I2234774
sg8
I0
sg9
I200000
sg10
I407503
sg11
I0
sg12
I1008941
sg13
I21530
sg14
I0
sg15
I601438
sg16
I0
sg17
I53775
sg18
I0
sg19
I00
sg20
I0
sg21
I0
sg22
S'john.echols@enron.com'
p124
sg24
I0
ssS'MENDELSOHN JOHN'
p125
(dp126
g3
I0
sg4
I0
sg5
I0
sg6
I148
sg7
I0
sg8
I0
sg9
I0
sg10
I0
sg11
I0
sg12
I0
sg13
I148
sg14
I0
sg15
I0
sg16
I0
sg17
I0
sg18
I0
sg19
I00
sg20
I-103750
sg21
I0
sg22
I0
sg24
I103750
ssS'HICKERSON GARY J'
p127
(dp128
g3
I211788
sg4
I1320
sg5
I0
sg6
I2081796
sg7
I69223
sg8
I0
sg9
I1700000
sg10
I441096
sg11
I0
sg12
I441096
sg13
I98849
sg14
I40
sg15
I0
sg16
I27
sg17
I1936
sg18
I1
sg19
I00
sg20
I0
sg21
I900
sg22
S'gary.hickerson@enron.com'
p129
sg24
I0
ssS'CLINE KENNETH W'
p130
(dp131
g3
I0
sg4
I0
sg5
I0
sg6
I0
sg7
I0
sg8
I0
sg9
I0
sg10
I662086
sg11
I-472568
sg12
I189518
sg13
I0
sg14
I0
sg15
I0
sg16
I0
sg17
I0
sg18
I0
sg19
I00
sg20
I0
sg21
I0
sg22
I0
sg24
I0
ssS'LEWIS RICHARD'
p132
(dp133
g3
I0
sg4
I952
sg5
I0
sg6
I0
sg7
I0
sg8
I0
sg9
I0
sg10
I0
sg11
I0
sg12
I850477
sg13
I0
sg14
I10
sg15
I850477
sg16
I26
sg17
I0
sg18
I0
sg19
I00
sg20
I0
sg21
I739
sg22
S'richard.lewis@enron.com'
p134
sg24
I0
ssS'HAYES ROBERT E'
p135
(dp136
g3
I0
sg4
I504
sg5
I7961
sg6
I7961
sg7
I0
sg8
I0
sg9
I0
sg10
I151418
sg11
I0
sg12
I151418
sg13
I0
sg14
I16
sg15
I0
sg16
I12
sg17
I0
sg18
I0
sg19
I00
sg20
I0
sg21
I50
sg22
S'robert.hayes@enron.com'
p137
sg24
I0
ssS'KOPPER MICHAEL J'
p138
(dp139
g4
I0
sg35
F0.30158952760524343
sg5
I0
sg9
I800000
sg20
I0
sg12
I985032
sg13
I118134
sg36
F0.04453497156764728
sg18
I0
sg19
I01
sg7
I602671
sg10
I985032
sg14
I0
sg3
I224305
sg37
F1.0
sg38
F1.0
sg6
I2652612
sg15
I0
sg22
S'michael.kopper@enron.com'
p140
sg11
I0
sg21
I0
sg8
I0
sg16
I0
sg17
I907502
sg40
F0.04453497156764728
sg41
F0.30158952760524343
sg24
I0
ssS'LEFF DANIEL P'
p141
(dp142
g3
I273746
sg4
I2822
sg5
I0
sg6
I2664228
sg7
I1387399
sg8
I0
sg9
I1000000
sg10
I360528
sg11
I0
sg12
I360528
sg13
I0
sg14
I67
sg15
I0
sg16
I63
sg17
I3083
sg18
I14
sg19
I00
sg20
I0
sg21
I2672
sg22
S'dan.leff@enron.com'
p143
sg24
I0
ssS'LAVORATO JOHN J'
p144
(dp145
g3
I339288
sg4
I7259
sg5
I0
sg6
I10425757
sg7
I2035380
sg8
I0
sg9
I8000000
sg10
I1008149
sg11
I0
sg12
I5167144
sg13
I49537
sg14
I528
sg15
I4158995
sg16
I2585
sg17
I1552
sg18
I411
sg19
I00
sg20
I0
sg21
I3962
sg22
S'john.lavorato@enron.com'
p146
sg24
I0
ssS'BERBERIAN DAVID'
p147
(dp148
g3
I216582
sg4
I0
sg5
I0
sg6
I228474
sg7
I0
sg8
I0
sg9
I0
sg10
I869220
sg11
I0
sg12
I2493616
sg13
I11892
sg14
I0
sg15
I1624396
sg16
I0
sg17
I0
sg18
I0
sg19
I00
sg20
I0
sg21
I0
sg22
S'david.berberian@enron.com'
p149
sg24
I0
ssS'DETMERING TIMOTHY J'
p150
(dp151
g3
I210500
sg4
I0
sg5
I875307
sg6
I1204583
sg7
I415657
sg8
I0
sg9
I425000
sg10
I315068
sg11
I-315068
sg12
I2027865
sg13
I52255
sg14
I0
sg15
I2027865
sg16
I0
sg17
I1105
sg18
I0
sg19
I00
sg20
I-775241
sg21
I0
sg22
S'timothy.detmering@enron.com'
p152
sg24
I0
ssS'WAKEHAM JOHN'
p153
(dp154
g3
I0
sg4
I0
sg5
I0
sg6
I213071
sg7
I0
sg8
I0
sg9
I0
sg10
I0
sg11
I0
sg12
I0
sg13
I103773
sg14
I0
sg15
I0
sg16
I0
sg17
I0
sg18
I0
sg19
I00
sg20
I0
sg21
I0
sg22
I0
sg24
I109298
ssS'POWERS WILLIAM'
p155
(dp156
g3
I0
sg4
I653
sg5
I0
sg6
I0
sg7
I0
sg8
I0
sg9
I0
sg10
I0
sg11
I0
sg12
I0
sg13
I0
sg14
I0
sg15
I0
sg16
I26
sg17
I0
sg18
I0
sg19
I00
sg20
I-17500
sg21
I12
sg22
S'ken.powers@enron.com'
p157
sg24
I17500
ssS'GOLD JOSEPH'
p158
(dp159
g3
I272880
sg4
I0
sg5
I0
sg6
I2146973
sg7
I304805
sg8
I0
sg9
I750000
sg10
I441096
sg11
I0
sg12
I877611
sg13
I0
sg14
I0
sg15
I436515
sg16
I0
sg17
I819288
sg18
I0
sg19
I00
sg20
I0
sg21
I0
sg22
S'joe.gold@enron.com'
p160
sg24
I0
ssS'BANNANTINE JAMES M'
p161
(dp162
g3
I477
sg4
I566
sg5
I0
sg6
I916197
sg7
I0
sg8
I0
sg9
I0
sg10
I1757552
sg11
I-560222
sg12
I5243487
sg13
I56301
sg14
I39
sg15
I4046157
sg16
I29
sg17
I864523
sg18
I0
sg19
I00
sg20
I-5104
sg21
I465
sg22
S'james.bannantine@enron.com'
p163
sg24
I0
ssS'DUNCAN JOHN H'
p164
(dp165
g3
I0
sg4
I0
sg5
I0
sg6
I77492
sg7
I0
sg8
I0
sg9
I0
sg10
I0
sg11
I0
sg12
I371750
sg13
I0
sg14
I0
sg15
I371750
sg16
I0
sg17
I0
sg18
I0
sg19
I00
sg20
I-25000
sg21
I0
sg22
I0
sg24
I102492
ssS'SHAPIRO RICHARD S'
p166
(dp167
g3
I269076
sg4
I15149
sg5
I0
sg6
I1057548
sg7
I0
sg8
I0
sg9
I650000
sg10
I379164
sg11
I0
sg12
I987001
sg13
I137767
sg14
I74
sg15
I607837
sg16
I1215
sg17
I705
sg18
I65
sg19
I00
sg20
I0
sg21
I4527
sg22
S'richard.shapiro@enron.com'
p168
sg24
I0
ssS'SHERRIFF JOHN R'
p169
(dp170
g3
I428780
sg4
I3187
sg5
I0
sg6
I4335388
sg7
I554422
sg8
I0
sg9
I1500000
sg10
I1293424
sg11
I0
sg12
I3128982
sg13
I0
sg14
I28
sg15
I1835558
sg16
I92
sg17
I1852186
sg18
I23
sg19
I00
sg20
I0
sg21
I2103
sg22
S'john.sherriff@enron.com'
p171
sg24
I0
ssS'SHELBY REX'
p172
(dp173
g4
I225
sg35
F0.09980612659908128
sg5
I0
sg9
I200000
sg20
I-4167
sg12
I2493616
sg13
I22884
sg36
F0.011419817005466881
sg18
I14
sg19
I01
sg7
I0
sg10
I869220
sg14
I13
sg3
I211844
sg37
F0.34857812911049657
sg38
F0.34857812911049657
sg6
I2003885
sg15
I1624396
sg22
S'rex.shelby@enron.com'
p174
sg11
I0
sg21
I91
sg8
I0
sg16
I39
sg17
I1573324
sg40
F0.011419817005466881
sg41
F0.09980612659908128
sg24
I0
ssS'LEMAISTRE CHARLES'
p175
(dp176
g3
I0
sg4
I0
sg5
I0
sg6
I87492
sg7
I0
sg8
I0
sg9
I0
sg10
I0
sg11
I0
sg12
I412878
sg13
I0
sg14
I0
sg15
I412878
sg16
I0
sg17
I0
sg18
I0
sg19
I00
sg20
I-25000
sg21
I0
sg22
I0
sg24
I112492
ssS'DEFFNER JOSEPH M'
p177
(dp178
g3
I206121
sg4
I714
sg5
I0
sg6
I1208649
sg7
I335349
sg8
I0
sg9
I600000
sg10
I141833
sg11
I0
sg12
I159211
sg13
I41626
sg14
I115
sg15
I17378
sg16
I74
sg17
I25553
sg18
I4
sg19
I00
sg20
I0
sg21
I552
sg22
S'joseph.deffner@enron.com'
p179
sg24
I0
ssS'KISHKILL JOSEPH G'
p180
(dp181
g3
I174246
sg4
I0
sg5
I0
sg6
I704896
sg7
I0
sg8
I0
sg9
I0
sg10
I1034346
sg11
I0
sg12
I1034346
sg13
I116335
sg14
I0
sg15
I0
sg16
I0
sg17
I465357
sg18
I0
sg19
I00
sg20
I-51042
sg21
I0
sg22
S'joe.kishkill@enron.com'
p182
sg24
I0
ssS'WHALLEY LAWRENCE G'
p183
(dp184
g3
I510364
sg4
I6019
sg5
I0
sg6
I4677574
sg7
I808346
sg8
I0
sg9
I3000000
sg10
I2796177
sg11
I0
sg12
I6079137
sg13
I57838
sg14
I186
sg15
I3282960
sg16
I556
sg17
I301026
sg18
I24
sg19
I00
sg20
I0
sg21
I3920
sg22
S'greg.whalley@enron.com'
p185
sg24
I0
ssS'PIRO JIM'
p186
(dp187
g3
I0
sg4
I58
sg5
I0
sg6
I0
sg7
I0
sg8
I0
sg9
I0
sg10
I47304
sg11
I0
sg12
I47304
sg13
I0
sg14
I0
sg15
I0
sg16
I16
sg17
I0
sg18
I1
sg19
I00
sg20
I0
sg21
I3
sg22
S'jim.piro@enron.com'
p188
sg24
I0
ssS'MCCONNELL MICHAEL S'
p189
(dp190
g3
I365038
sg4
I3329
sg5
I0
sg6
I2101364
sg7
I554422
sg8
I0
sg9
I1100000
sg10
I1478269
sg11
I0
sg12
I3101279
sg13
I81364
sg14
I92
sg15
I1623010
sg16
I2742
sg17
I540
sg18
I194
sg19
I00
sg20
I0
sg21
I2189
sg22
S'mike.mcconnell@enron.com'
p191
sg24
I0
ssS'DELAINEY DAVID W'
p192
(dp193
g4
I3093
sg35
F0.6318477819720769
sg5
I0
sg9
I3000000
sg20
I0
sg12
I3614261
sg13
I86174
sg36
F0.018149616921220586
sg18
I609
sg19
I01
sg7
I1294981
sg10
I1323148
sg14
I66
sg3
I365163
sg37
F0.3660908827558386
sg38
F0.3660908827558386
sg6
I4747979
sg15
I2291113
sg22
S'david.delainey@enron.com'
p194
sg11
I0
sg21
I2097
sg8
I0
sg16
I3069
sg17
I1661
sg40
F0.018149616921220586
sg41
F0.6318477819720769
sg24
I0
ssS'SULLIVAN-SHAKLOVITZ COLLEEN'
p195
(dp196
g3
I162779
sg4
I0
sg5
I181993
sg6
I999356
sg7
I554422
sg8
I0
sg9
I100000
sg10
I0
sg11
I0
sg12
I1362375
sg13
I0
sg14
I0
sg15
I1362375
sg16
I0
sg17
I162
sg18
I0
sg19
I00
sg20
I0
sg21
I0
sg22
I0
sg24
I0
ssS'WROBEL BRUCE'
p197
(dp198
g3
I0
sg4
I0
sg5
I0
sg6
I0
sg7
I0
sg8
I0
sg9
I0
sg10
I0
sg11
I0
sg12
I139130
sg13
I0
sg14
I0
sg15
I139130
sg16
I0
sg17
I0
sg18
I0
sg19
I00
sg20
I0
sg21
I0
sg22
I0
sg24
I0
ssS'LINDHOLM TOD A'
p199
(dp200
g3
I236457
sg4
I0
sg5
I204075
sg6
I875889
sg7
I175000
sg8
I0
sg9
I200000
sg10
I514847
sg11
I0
sg12
I3064208
sg13
I57727
sg14
I0
sg15
I2549361
sg16
I0
sg17
I2630
sg18
I0
sg19
I00
sg20
I0
sg21
I0
sg22
S'tod.lindholm@enron.com'
p201
sg24
I0
ssS'MEYER JEROME J'
p202
(dp203
g3
I0
sg4
I0
sg5
I0
sg6
I2151
sg7
I0
sg8
I0
sg9
I0
sg10
I0
sg11
I0
sg12
I0
sg13
I2151
sg14
I0
sg15
I0
sg16
I0
sg17
I0
sg18
I0
sg19
I00
sg20
I-38346
sg21
I0
sg22
I0
sg24
I38346
ssS'LAY KENNETH L'
p204
(dp205
g4
I4273
sg35
F0.06759380061719514
sg5
I202911
sg9
I7000000
sg20
I-300000
sg12
I49110078
sg13
I99832
sg36
F0.0009640034718879749
sg18
I16
sg19
I01
sg7
I3600000
sg10
I14761694
sg14
I123
sg3
I1072321
sg37
F0.30058380277872904
sg38
F0.30058380277872904
sg6
I103559793
sg15
I34348384
sg22
S'kenneth.lay@enron.com'
p206
sg11
I0
sg21
I2411
sg8
I81525000
sg16
I36
sg17
I10359729
sg40
F0.0009640034718879749
sg41
F0.06759380061719514
sg24
I0
ssS'BUTTS ROBERT H'
p207
(dp208
g3
I261516
sg4
I0
sg5
I0
sg6
I1271582
sg7
I175000
sg8
I0
sg9
I750000
sg10
I417619
sg11
I0
sg12
I417619
sg13
I9410
sg14
I0
sg15
I0
sg16
I0
sg17
I150656
sg18
I0
sg19
I00
sg20
I-75000
sg21
I0
sg22
S'bob.butts@enron.com'
p209
sg24
I0
ssS'OLSON CINDY K'
p210
(dp211
g3
I329078
sg4
I1184
sg5
I77716
sg6
I1321557
sg7
I100000
sg8
I0
sg9
I750000
sg10
I969729
sg11
I0
sg12
I2606763
sg13
I63791
sg14
I20
sg15
I1637034
sg16
I52
sg17
I972
sg18
I15
sg19
I00
sg20
I0
sg21
I856
sg22
S'cindy.olson@enron.com'
p212
sg24
I0
ssS'MCDONALD REBECCA'
p213
(dp214
g3
I0
sg4
I894
sg5
I0
sg6
I0
sg7
I0
sg8
I0
sg9
I0
sg10
I934065
sg11
I0
sg12
I1691366
sg13
I0
sg14
I54
sg15
I757301
sg16
I13
sg17
I0
sg18
I1
sg19
I00
sg20
I0
sg21
I720
sg22
S'rebecca.mcdonald@enron.com'
p215
sg24
I0
ssS'CUMBERLAND MICHAEL S'
p216
(dp217
g3
I184899
sg4
I0
sg5
I0
sg6
I807956
sg7
I275000
sg8
I0
sg9
I325000
sg10
I207940
sg11
I0
sg12
I207940
sg13
I22344
sg14
I0
sg15
I0
sg16
I0
sg17
I713
sg18
I0
sg19
I00
sg20
I0
sg21
I0
sg22
I0
sg24
I0
ssS'GAHN ROBERT S'
p218
(dp219
g3
I192008
sg4
I0
sg5
I73122
sg6
I900585
sg7
I0
sg8
I0
sg9
I509870
sg10
I235370
sg11
I0
sg12
I318607
sg13
I50080
sg14
I0
sg15
I83237
sg16
I0
sg17
I76547
sg18
I0
sg19
I00
sg20
I-1042
sg21
I0
sg22
I0
sg24
I0
ssS'BADUM JAMES P'
p220
(dp221
g3
I0
sg4
I0
sg5
I178980
sg6
I182466
sg7
I0
sg8
I0
sg9
I0
sg10
I0
sg11
I0
sg12
I257817
sg13
I3486
sg14
I0
sg15
I257817
sg16
I0
sg17
I0
sg18
I0
sg19
I00
sg20
I0
sg21
I0
sg22
I0
sg24
I0
ssS'HERMANN ROBERT J'
p222
(dp223
g3
I262663
sg4
I0
sg5
I0
sg6
I1297461
sg7
I150000
sg8
I0
sg9
I700000
sg10
I480632
sg11
I0
sg12
I668132
sg13
I48357
sg14
I0
sg15
I187500
sg16
I0
sg17
I416441
sg18
I0
sg19
I00
sg20
I-280000
sg21
I0
sg22
S'robert.hermann@enron.com'
p224
sg24
I0
ssS'FALLON JAMES B'
p225
(dp226
g3
I304588
sg4
I1755
sg5
I0
sg6
I3676340
sg7
I374347
sg8
I0
sg9
I2500000
sg10
I1392142
sg11
I0
sg12
I2332399
sg13
I95924
sg14
I42
sg15
I940257
sg16
I75
sg17
I401481
sg18
I37
sg19
I00
sg20
I0
sg21
I1604
sg22
S'jim.fallon@enron.com'
p227
sg24
I0
ssS'GATHMANN WILLIAM D'
p228
(dp229
g3
I0
sg4
I0
sg5
I0
sg6
I0
sg7
I0
sg8
I0
sg9
I0
sg10
I264013
sg11
I-72419
sg12
I1945360
sg13
I0
sg14
I0
sg15
I1753766
sg16
I0
sg17
I0
sg18
I0
sg19
I00
sg20
I0
sg21
I0
sg22
I0
sg24
I0
ssS'HORTON STANLEY C'
p230
(dp231
g3
I0
sg4
I2350
sg5
I3131860
sg6
I3131860
sg7
I0
sg8
I0
sg9
I0
sg10
I2046079
sg11
I0
sg12
I7256648
sg13
I0
sg14
I44
sg15
I5210569
sg16
I1073
sg17
I0
sg18
I15
sg19
I00
sg20
I0
sg21
I1074
sg22
S'stanley.horton@enron.com'
p232
sg24
I0
ssS'BOWEN JR RAYMOND M'
p233
(dp234
g4
I1858
sg35
F0.5056958205926081
sg5
I0
sg9
I1350000
sg20
I-833
sg12
I252055
sg13
I65907
sg36
F0.024688069961331126
sg18
I15
sg19
I01
sg7
I974293
sg10
I252055
sg14
I140
sg3
I278601
sg37
F1.0
sg38
F1.0
sg6
I2669589
sg15
I0
sg22
S'raymond.bowen@enron.com'
p235
sg11
I0
sg21
I1593
sg8
I0
sg16
I27
sg17
I1621
sg40
F0.024688069961331126
sg41
F0.5056958205926081
sg24
I0
ssS'GILLIS JOHN'
p236
(dp237
g3
I0
sg4
I0
sg5
I0
sg6
I0
sg7
I0
sg8
I0
sg9
I0
sg10
I75838
sg11
I0
sg12
I85641
sg13
I0
sg14
I0
sg15
I9803
sg16
I0
sg17
I0
sg18
I0
sg19
I00
sg20
I0
sg21
I0
sg22
I0
sg24
I0
ssS'FITZGERALD JAY L'
p238
(dp239
g3
I199157
sg4
I936
sg5
I0
sg6
I1414857
sg7
I556416
sg8
I0
sg9
I350000
sg10
I956775
sg11
I0
sg12
I1621236
sg13
I23870
sg14
I1
sg15
I664461
sg16
I16
sg17
I285414
sg18
I8
sg19
I00
sg20
I0
sg21
I723
sg22
S'jay.fitzgerald@enron.com'
p240
sg24
I0
ssS'MORAN MICHAEL P'
p241
(dp242
g3
I0
sg4
I672
sg5
I0
sg6
I0
sg7
I0
sg8
I0
sg9
I0
sg10
I161602
sg11
I0
sg12
I221141
sg13
I0
sg14
I0
sg15
I59539
sg16
I19
sg17
I0
sg18
I0
sg19
I00
sg20
I0
sg21
I127
sg22
S'michael.moran@enron.com'
p243
sg24
I0
ssS'REDMOND BRIAN L'
p244
(dp245
g3
I96840
sg4
I1671
sg5
I0
sg6
I111529
sg7
I0
sg8
I0
sg9
I0
sg10
I381285
sg11
I0
sg12
I7890324
sg13
I14689
sg14
I204
sg15
I7509039
sg16
I221
sg17
I0
sg18
I49
sg19
I00
sg20
I0
sg21
I1063
sg22
S'brian.redmond@enron.com'
p246
sg24
I0
ssS'BAZELIDES PHILIP J'
p247
(dp248
g3
I80818
sg4
I0
sg5
I684694
sg6
I860136
sg7
I93750
sg8
I0
sg9
I0
sg10
I0
sg11
I0
sg12
I1599641
sg13
I0
sg14
I0
sg15
I1599641
sg16
I0
sg17
I874
sg18
I0
sg19
I00
sg20
I0
sg21
I0
sg22
I0
sg24
I0
ssS'BELDEN TIMOTHY N'
p249
(dp250
g4
I7991
sg35
F0.9542624640333864
sg5
I2144013
sg9
I5249999
sg20
I-2334434
sg12
I1110705
sg13
I17355
sg36
F0.003154519660536968
sg18
I108
sg19
I01
sg7
I0
sg10
I157569
sg14
I228
sg3
I213999
sg37
F0.1418639512741907
sg38
F0.1418639512741907
sg6
I5501630
sg15
I953136
sg22
S'tim.belden@enron.com'
p251
sg11
I0
sg21
I5521
sg8
I0
sg16
I484
sg17
I210698
sg40
F0.003154519660536968
sg41
F0.9542624640333864
sg24
I0
ssS'DIMICHELE RICHARD G'
p252
(dp253
g3
I262788
sg4
I0
sg5
I0
sg6
I2368151
sg7
I694862
sg8
I0
sg9
I1000000
sg10
I126027
sg11
I0
sg12
I8317782
sg13
I35812
sg14
I0
sg15
I8191755
sg16
I0
sg17
I374689
sg18
I0
sg19
I00
sg20
I0
sg21
I0
sg22
S'richard.dimichele@enron.com'
p254
sg24
I0
ssS'DURAN WILLIAM D'
p255
(dp256
g3
I210692
sg4
I904
sg5
I0
sg6
I2093263
sg7
I1105218
sg8
I0
sg9
I750000
sg10
I189041
sg11
I0
sg12
I1640910
sg13
I25785
sg14
I106
sg15
I1451869
sg16
I12
sg17
I1568
sg18
I3
sg19
I00
sg20
I0
sg21
I599
sg22
S'w.duran@enron.com'
p257
sg24
I0
ssS'THORN TERENCE H'
p258
(dp259
g3
I222093
sg4
I266
sg5
I16586
sg6
I911453
sg7
I200000
sg8
I0
sg9
I0
sg10
I365320
sg11
I0
sg12
I4817796
sg13
I46145
sg14
I0
sg15
I4452476
sg16
I41
sg17
I426629
sg18
I0
sg19
I00
sg20
I0
sg21
I73
sg22
S'terence.thorn@enron.com'
p260
sg24
I0
ssS'FASTOW ANDREW S'
p261
(dp262
g4
I0
sg35
F0.5362852674599013
sg5
I0
sg9
I1300000
sg20
I-1386055
sg12
I1794412
sg13
I55921
sg36
F0.02306892957048088
sg18
I0
sg19
I01
sg7
I1736055
sg10
I1794412
sg14
I0
sg3
I440698
sg37
F1.0
sg38
F1.0
sg6
I2424083
sg15
I0
sg22
S'andrew.fastow@enron.com'
p263
sg11
I0
sg21
I0
sg8
I0
sg16
I0
sg17
I277464
sg40
F0.02306892957048088
sg41
F0.5362852674599013
sg24
I0
ssS'FOY JOE'
p264
(dp265
g3
I0
sg4
I57
sg5
I181755
sg6
I181755
sg7
I0
sg8
I0
sg9
I0
sg10
I0
sg11
I0
sg12
I343434
sg13
I0
sg14
I0
sg15
I343434
sg16
I13
sg17
I0
sg18
I0
sg19
I00
sg20
I0
sg21
I2
sg22
S'tracy.foy@enron.com'
p266
sg24
I0
ssS'CALGER CHRISTOPHER F'
p267
(dp268
g4
I2598
sg35
F0.7625219835087845
sg5
I0
sg9
I1250000
sg20
I-262500
sg12
I126027
sg13
I35818
sg36
F0.021849609924254117
sg18
I25
sg19
I01
sg7
I375304
sg10
I126027
sg14
I199
sg3
I240189
sg37
F1.0
sg38
F1.0
sg6
I1639297
sg15
I0
sg22
S'christopher.calger@enron.com'
p269
sg11
I0
sg21
I2188
sg8
I0
sg16
I144
sg17
I486
sg40
F0.021849609924254117
sg41
F0.7625219835087845
sg24
I0
ssS'RICE KENNETH D'
p270
(dp271
g4
I905
sg35
F3.465003465003465
sg5
I0
sg9
I1750000
sg20
I-3504386
sg12
I22542539
sg13
I46950
sg36
F0.09296109296109296
sg18
I4
sg19
I01
sg7
I1617011
sg10
I2748364
sg14
I42
sg3
I420636
sg37
F0.12191900832466121
sg38
F0.12191900832466121
sg6
I505050
sg15
I19794175
sg22
S'ken.rice@enron.com'
p272
sg11
I0
sg21
I864
sg8
I0
sg16
I18
sg17
I174839
sg40
F0.09296109296109296
sg41
F3.465003465003465
sg24
I0
ssS'KAMINSKI WINCENTY J'
p273
(dp274
g3
I275101
sg4
I4607
sg5
I0
sg6
I1086821
sg7
I323466
sg8
I0
sg9
I400000
sg10
I126027
sg11
I0
sg12
I976037
sg13
I83585
sg14
I41
sg15
I850010
sg16
I14368
sg17
I4669
sg18
I171
sg19
I00
sg20
I0
sg21
I583
sg22
S'vince.kaminski@enron.com'
p275
sg24
I0
ssS'LOCKHART EUGENE E'
p276
(dp277
g3
I0
sg4
I0
sg5
I0
sg6
I0
sg7
I0
sg8
I0
sg9
I0
sg10
I0
sg11
I0
sg12
I0
sg13
I0
sg14
I0
sg15
I0
sg16
I0
sg17
I0
sg18
I0
sg19
I00
sg20
I0
sg21
I0
sg22
I0
sg24
I0
ssS'COX DAVID'
p278
(dp279
g3
I314288
sg4
I102
sg5
I0
sg6
I1101393
sg7
I0
sg8
I0
sg9
I800000
sg10
I378082
sg11
I0
sg12
I495633
sg13
I27861
sg14
I0
sg15
I117551
sg16
I33
sg17
I494
sg18
I4
sg19
I00
sg20
I-41250
sg21
I71
sg22
S'chip.cox@enron.com'
p280
sg24
I0
ssS'OVERDYKE JR JERE C'
p281
(dp282
g3
I94941
sg4
I0
sg5
I0
sg6
I249787
sg7
I135836
sg8
I0
sg9
I0
sg10
I2041016
sg11
I0
sg12
I7307594
sg13
I18834
sg14
I0
sg15
I5266578
sg16
I0
sg17
I176
sg18
I0
sg19
I00
sg20
I0
sg21
I0
sg22
S'jere.overdyke@enron.com'
p283
sg24
I0
ssS'PEREIRA PAULO V. FERRAZ'
p284
(dp285
g3
I0
sg4
I0
sg5
I0
sg6
I27942
sg7
I0
sg8
I0
sg9
I0
sg10
I0
sg11
I0
sg12
I0
sg13
I27942
sg14
I0
sg15
I0
sg16
I0
sg17
I0
sg18
I0
sg19
I00
sg20
I-101250
sg21
I0
sg22
I0
sg24
I101250
ssS'STABLER FRANK'
p286
(dp287
g3
I239502
sg4
I0
sg5
I0
sg6
I1112087
sg7
I0
sg8
I0
sg9
I500000
sg10
I511734
sg11
I0
sg12
I511734
sg13
I16514
sg14
I0
sg15
I0
sg16
I0
sg17
I356071
sg18
I0
sg19
I00
sg20
I0
sg21
I0
sg22
S'frank.stabler@enron.com'
p288
sg24
I0
ssS'SKILLING JEFFREY K'
p289
(dp290
g4
I3627
sg35
F0.6449594804206426
sg5
I0
sg9
I5600000
sg20
I0
sg12
I26093672
sg13
I29336
sg36
F0.003378666306717852
sg18
I30
sg19
I01
sg7
I1920000
sg10
I6843672
sg14
I88
sg3
I1111258
sg37
F0.2622732438730739
sg38
F0.2622732438730739
sg6
I8682716
sg15
I19250000
sg22
S'jeff.skilling@enron.com'
p291
sg11
I0
sg21
I2042
sg8
I0
sg16
I108
sg17
I22122
sg40
F0.003378666306717852
sg41
F0.6449594804206426
sg24
I0
ssS'BLAKE JR. NORMAN P'
p292
(dp293
g3
I0
sg4
I0
sg5
I0
sg6
I1279
sg7
I0
sg8
I0
sg9
I0
sg10
I0
sg11
I0
sg12
I0
sg13
I1279
sg14
I0
sg15
I0
sg16
I0
sg17
I0
sg18
I0
sg19
I00
sg20
I-113784
sg21
I0
sg22
I0
sg24
I113784
ssS'SHERRICK JEFFREY B'
p294
(dp295
g3
I0
sg4
I613
sg5
I0
sg6
I0
sg7
I0
sg8
I0
sg9
I0
sg10
I405999
sg11
I0
sg12
I1832468
sg13
I0
sg14
I39
sg15
I1426469
sg16
I25
sg17
I0
sg18
I18
sg19
I00
sg20
I0
sg21
I583
sg22
S'jeffrey.sherrick@enron.com'
p296
sg24
I0
ssS'PRENTICE JAMES'
p297
(dp298
g3
I0
sg4
I0
sg5
I564348
sg6
I564348
sg7
I0
sg8
I0
sg9
I0
sg10
I208809
sg11
I0
sg12
I1095040
sg13
I0
sg14
I0
sg15
I886231
sg16
I0
sg17
I0
sg18
I0
sg19
I00
sg20
I0
sg21
I0
sg22
S'james.prentice@enron.com'
p299
sg24
I0
ssS'GRAY RODNEY'
p300
(dp301
g3
I6615
sg4
I0
sg5
I93585
sg6
I1146658
sg7
I365625
sg8
I0
sg9
I0
sg10
I0
sg11
I0
sg12
I0
sg13
I0
sg14
I0
sg15
I0
sg16
I0
sg17
I680833
sg18
I0
sg19
I00
sg20
I0
sg21
I0
sg22
I0
sg24
I0
ssS'UMANOFF ADAM S'
p302
(dp303
g3
I288589
sg4
I111
sg5
I0
sg6
I1130461
sg7
I0
sg8
I0
sg9
I788750
sg10
I0
sg11
I0
sg12
I0
sg13
I53122
sg14
I12
sg15
I0
sg16
I18
sg17
I0
sg18
I0
sg19
I00
sg20
I0
sg21
I41
sg22
S'adam.umanoff@enron.com'
p304
sg24
I0
ssS'KEAN STEVEN J'
p305
(dp306
g3
I404338
sg4
I12754
sg5
I0
sg6
I1747522
sg7
I300000
sg8
I0
sg9
I1000000
sg10
I4131594
sg11
I0
sg12
I6153642
sg13
I41953
sg14
I140
sg15
I2022048
sg16
I6759
sg17
I1231
sg18
I387
sg19
I00
sg20
I0
sg21
I3639
sg22
S'steven.kean@enron.com'
p307
sg24
I0
ssS'FOWLER PEGGY'
p308
(dp309
g3
I0
sg4
I517
sg5
I0
sg6
I0
sg7
I0
sg8
I0
sg9
I0
sg10
I560170
sg11
I0
sg12
I1884748
sg13
I0
sg14
I0
sg15
I1324578
sg16
I36
sg17
I0
sg18
I0
sg19
I00
sg20
I0
sg21
I10
sg22
S'kulvinder.fowler@enron.com'
p310
sg24
I0
ssS'WASAFF GEORGE'
p311
(dp312
g3
I259996
sg4
I400
sg5
I831299
sg6
I1034395
sg7
I200000
sg8
I0
sg9
I325000
sg10
I388167
sg11
I0
sg12
I2056427
sg13
I0
sg14
I22
sg15
I1668260
sg16
I30
sg17
I1425
sg18
I7
sg19
I00
sg20
I-583325
sg21
I337
sg22
S'george.wasaff@enron.com'
p313
sg24
I0
ssS'WHITE JR THOMAS E'
p314
(dp315
g3
I317543
sg4
I0
sg5
I0
sg6
I1934359
sg7
I0
sg8
I0
sg9
I450000
sg10
I13847074
sg11
I0
sg12
I15144123
sg13
I81353
sg14
I0
sg15
I1297049
sg16
I0
sg17
I1085463
sg18
I0
sg19
I00
sg20
I0
sg21
I0
sg22
S'thomas.white@enron.com'
p316
sg24
I0
ssS'CHRISTODOULOU DIOMEDES'
p317
(dp318
g3
I0
sg4
I0
sg5
I0
sg6
I0
sg7
I0
sg8
I0
sg9
I0
sg10
I950730
sg11
I0
sg12
I6077885
sg13
I0
sg14
I0
sg15
I5127155
sg16
I0
sg17
I0
sg18
I0
sg19
I00
sg20
I0
sg21
I0
sg22
S'diomedes.christodoulou@enron.com'
p319
sg24
I0
ssS'ALLEN PHILLIP K'
p320
(dp321
g3
I201955
sg4
I2902
sg5
I2869717
sg6
I4484442
sg7
I304805
sg8
I0
sg9
I4175000
sg10
I126027
sg11
I-126027
sg12
I1729541
sg13
I13868
sg14
I47
sg15
I1729541
sg16
I2195
sg17
I152
sg18
I65
sg19
I00
sg20
I-3081055
sg21
I1407
sg22
S'phillip.allen@enron.com'
p322
sg24
I0
ssS'SHARP VICTORIA T'
p323
(dp324
g3
I248146
sg4
I3136
sg5
I187469
sg6
I1576511
sg7
I422158
sg8
I0
sg9
I600000
sg10
I213063
sg11
I0
sg12
I494136
sg13
I116337
sg14
I24
sg15
I281073
sg16
I136
sg17
I2401
sg18
I6
sg19
I00
sg20
I0
sg21
I2477
sg22
S'vicki.sharp@enron.com'
p325
sg24
I0
ssS'JAEDICKE ROBERT'
p326
(dp327
g3
I0
sg4
I0
sg5
I0
sg6
I83750
sg7
I0
sg8
I0
sg9
I0
sg10
I44093
sg11
I-44093
sg12
I431750
sg13
I0
sg14
I0
sg15
I431750
sg16
I0
sg17
I0
sg18
I0
sg19
I00
sg20
I-25000
sg21
I0
sg22
I0
sg24
I108750
ssS'WINOKUR JR. HERBERT S'
p328
(dp329
g3
I0
sg4
I0
sg5
I0
sg6
I84992
sg7
I0
sg8
I0
sg9
I0
sg10
I0
sg11
I0
sg12
I0
sg13
I1413
sg14
I0
sg15
I0
sg16
I0
sg17
I0
sg18
I0
sg19
I00
sg20
I-25000
sg21
I0
sg22
I0
sg24
I108579
ssS'BROWN MICHAEL'
p330
(dp331
g3
I0
sg4
I1486
sg5
I0
sg6
I49288
sg7
I0
sg8
I0
sg9
I0
sg10
I0
sg11
I0
sg12
I0
sg13
I49288
sg14
I13
sg15
I0
sg16
I41
sg17
I0
sg18
I1
sg19
I00
sg20
I0
sg21
I761
sg22
S'michael.brown@enron.com'
p332
sg24
I0
ssS'MCCLELLAN GEORGE'
p333
(dp334
g3
I263413
sg4
I1744
sg5
I0
sg6
I1318763
sg7
I0
sg8
I0
sg9
I900000
sg10
I441096
sg11
I0
sg12
I947861
sg13
I228763
sg14
I52
sg15
I506765
sg16
I49
sg17
I51587
sg18
I0
sg19
I00
sg20
I-125000
sg21
I1469
sg22
S'george.mcclellan@enron.com'
p335
sg24
I0
ssS'HUGHES JAMES A'
p336
(dp337
g3
I0
sg4
I719
sg5
I0
sg6
I0
sg7
I0
sg8
I0
sg9
I0
sg10
I363428
sg11
I0
sg12
I1118394
sg13
I0
sg14
I35
sg15
I754966
sg16
I34
sg17
I0
sg18
I5
sg19
I00
sg20
I0
sg21
I589
sg22
S'james.hughes@enron.com'
p338
sg24
I0
ssS'REYNOLDS LAWRENCE'
p339
(dp340
g3
I76399
sg4
I0
sg5
I51365
sg6
I394475
sg7
I156250
sg8
I0
sg9
I100000
sg10
I201483
sg11
I-140264
sg12
I4221891
sg13
I8409
sg14
I0
sg15
I4160672
sg16
I0
sg17
I202052
sg18
I0
sg19
I00
sg20
I-200000
sg21
I0
sg22
I0
sg24
I0
ssS'PICKERING MARK R'
p341
(dp342
g3
I655037
sg4
I898
sg5
I0
sg6
I1386690
sg7
I0
sg8
I400000
sg9
I300000
sg10
I0
sg11
I0
sg12
I28798
sg13
I31653
sg14
I7
sg15
I28798
sg16
I67
sg17
I0
sg18
I0
sg19
I00
sg20
I0
sg21
I728
sg22
S'mark.pickering@enron.com'
p343
sg24
I0
ssS'BHATNAGAR SANJAY'
p344
(dp345
g3
I0
sg4
I523
sg5
I0
sg6
I15456290
sg7
I0
sg8
I0
sg9
I0
sg10
I-2604490
sg11
I15456290
sg12
I0
sg13
I0
sg14
I0
sg15
I2604490
sg16
I29
sg17
I137864
sg18
I1
sg19
I00
sg20
I0
sg21
I463
sg22
S'sanjay.bhatnagar@enron.com'
p346
sg24
I137864
ssS'CARTER REBECCA C'
p347
(dp348
g3
I261809
sg4
I312
sg5
I0
sg6
I477557
sg7
I75000
sg8
I0
sg9
I300000
sg10
I307301
sg11
I-307301
sg12
I0
sg13
I0
sg14
I29
sg15
I0
sg16
I15
sg17
I540
sg18
I7
sg19
I00
sg20
I-159792
sg21
I196
sg22
S'rebecca.carter@enron.com'
p349
sg24
I0
ssS'BUCHANAN HAROLD G'
p350
(dp351
g3
I248017
sg4
I1088
sg5
I0
sg6
I1054637
sg7
I304805
sg8
I0
sg9
I500000
sg10
I189041
sg11
I0
sg12
I1014505
sg13
I600
sg14
I0
sg15
I825464
sg16
I125
sg17
I1215
sg18
I0
sg19
I00
sg20
I0
sg21
I23
sg22
S'john.buchanan@enron.com'
p352
sg24
I0
ssS'YEAP SOON'
p353
(dp354
g3
I0
sg4
I0
sg5
I0
sg6
I55097
sg7
I0
sg8
I0
sg9
I0
sg10
I0
sg11
I0
sg12
I192758
sg13
I55097
sg14
I0
sg15
I192758
sg16
I0
sg17
I0
sg18
I0
sg19
I00
sg20
I0
sg21
I0
sg22
I0
sg24
I0
ssS'MURRAY JULIA H'
p355
(dp356
g3
I229284
sg4
I2192
sg5
I0
sg6
I812194
sg7
I125000
sg8
I0
sg9
I400000
sg10
I196983
sg11
I0
sg12
I597461
sg13
I57580
sg14
I11
sg15
I400478
sg16
I45
sg17
I330
sg18
I2
sg19
I00
sg20
I0
sg21
I395
sg22
S'julia.murray@enron.com'
p357
sg24
I0
ssS'GARLAND C KEVIN'
p358
(dp359
g3
I231946
sg4
I209
sg5
I0
sg6
I1566469
sg7
I375304
sg8
I0
sg9
I850000
sg10
I259907
sg11
I0
sg12
I896153
sg13
I48405
sg14
I10
sg15
I636246
sg16
I44
sg17
I60814
sg18
I27
sg19
I00
sg20
I0
sg21
I178
sg22
S'kevin.garland@enron.com'
p360
sg24
I0
ssS'DODSON KEITH'
p361
(dp362
g3
I221003
sg4
I176
sg5
I0
sg6
I319941
sg7
I0
sg8
I0
sg9
I70000
sg10
I0
sg11
I0
sg12
I0
sg13
I28164
sg14
I10
sg15
I0
sg16
I14
sg17
I774
sg18
I3
sg19
I00
sg20
I0
sg21
I114
sg22
S'keith.dodson@enron.com'
p363
sg24
I0
ssS'YEAGER F SCOTT'
p364
(dp365
g4
I0
sg35
Fnan
sg5
I0
sg9
I0
sg20
I0
sg12
I11884758
sg13
I53947
sg36
F0.14972800444074383
sg18
I0
sg19
I01
sg7
I0
sg10
I3576206
sg14
I0
sg3
I158403
sg37
F0.30090692633371247
sg38
F0.30090692633371247
sg6
I360300
sg15
I8308552
sg22
S'scott.yeager@enron.com'
p366
sg11
I0
sg21
I0
sg8
I0
sg16
I0
sg17
I147950
sg40
F0.14972800444074383
sg41
F0.0
sg24
I0
ssS'HIRKO JOSEPH'
p367
(dp368
g4
I0
sg35
Fnan
sg5
I10259
sg9
I0
sg20
I0
sg12
I30766064
sg13
I77978
sg36
F0.8560262588782892
sg18
I0
sg19
I01
sg7
I0
sg10
I0
sg14
I0
sg3
I0
sg37
Fnan
sg38
F0.0
sg6
I91093
sg15
I30766064
sg22
S'joe.hirko@enron.com'
p369
sg11
I0
sg21
I0
sg8
I0
sg16
I0
sg17
I2856
sg40
F0.8560262588782892
sg41
F0.0
sg24
I0
ssS'DIETRICH JANET R'
p370
(dp371
g3
I250100
sg4
I2572
sg5
I0
sg6
I1410464
sg7
I556416
sg8
I0
sg9
I600000
sg10
I315068
sg11
I0
sg12
I1865087
sg13
I3475
sg14
I305
sg15
I1550019
sg16
I63
sg17
I473
sg18
I14
sg19
I00
sg20
I0
sg21
I1902
sg22
S'janet.dietrich@enron.com'
p372
sg24
I0
ssS'DERRICK JR. JAMES V'
p373
(dp374
g3
I492375
sg4
I2181
sg5
I0
sg6
I550981
sg7
I484000
sg8
I0
sg9
I800000
sg10
I1787380
sg11
I-1787380
sg12
I8831913
sg13
I51124
sg14
I64
sg15
I8831913
sg16
I909
sg17
I7482
sg18
I20
sg19
I00
sg20
I-1284000
sg21
I1401
sg22
S'james.derrick@enron.com'
p375
sg24
I0
ssS'FREVERT MARK A'
p376
(dp377
g3
I1060932
sg4
I3275
sg5
I6426990
sg6
I17252530
sg7
I1617011
sg8
I2000000
sg9
I2000000
sg10
I4188667
sg11
I0
sg12
I14622185
sg13
I86987
sg14
I242
sg15
I10433518
sg16
I21
sg17
I7427621
sg18
I6
sg19
I00
sg20
I-3367011
sg21
I2979
sg22
S'mark.frevert@enron.com'
p378
sg24
I0
ssS'PAI LOU L'
p379
(dp380
g3
I261879
sg4
I0
sg5
I0
sg6
I3123383
sg7
I0
sg8
I0
sg9
I1000000
sg10
I8453763
sg11
I0
sg12
I23817930
sg13
I32047
sg14
I0
sg15
I15364167
sg16
I0
sg17
I1829457
sg18
I0
sg19
I00
sg20
I0
sg21
I0
sg22
S'lou.pai@enron.com'
p381
sg24
I0
ssS'HAYSLETT RODERICK J'
p382
(dp383
g3
I0
sg4
I2649
sg5
I0
sg6
I0
sg7
I0
sg8
I0
sg9
I0
sg10
I346663
sg11
I0
sg12
I346663
sg13
I0
sg14
I35
sg15
I0
sg16
I1061
sg17
I0
sg18
I38
sg19
I00
sg20
I0
sg21
I571
sg22
S'rod.hayslett@enron.com'
p384
sg24
I0
ssS'BAY FRANKLIN R'
p385
(dp386
g3
I239671
sg4
I0
sg5
I260455
sg6
I827696
sg7
I0
sg8
I0
sg9
I400000
sg10
I145796
sg11
I-82782
sg12
I63014
sg13
I129142
sg14
I0
sg15
I0
sg16
I0
sg17
I69
sg18
I0
sg19
I00
sg20
I-201641
sg21
I0
sg22
S'frank.bay@enron.com'
p387
sg24
I0
ssS'MCCARTY DANNY J'
p388
(dp389
g3
I0
sg4
I1433
sg5
I0
sg6
I0
sg7
I0
sg8
I0
sg9
I0
sg10
I94556
sg11
I0
sg12
I758931
sg13
I0
sg14
I25
sg15
I664375
sg16
I215
sg17
I0
sg18
I2
sg19
I00
sg20
I0
sg21
I508
sg22
S'danny.mccarty@enron.com'
p390
sg24
I0
ssS'FUGH JOHN L'
p391
(dp392
g3
I0
sg4
I0
sg5
I50591
sg6
I50591
sg7
I0
sg8
I0
sg9
I0
sg10
I0
sg11
I0
sg12
I176378
sg13
I0
sg14
I0
sg15
I176378
sg16
I0
sg17
I0
sg18
I0
sg19
I00
sg20
I0
sg21
I0
sg22
I0
sg24
I0
ssS'SCRIMSHAW MATTHEW'
p393
(dp394
g3
I0
sg4
I0
sg5
I0
sg6
I0
sg7
I0
sg8
I0
sg9
I0
sg10
I0
sg11
I0
sg12
I759557
sg13
I0
sg14
I0
sg15
I759557
sg16
I0
sg17
I0
sg18
I0
sg19
I00
sg20
I0
sg21
I0
sg22
S'matthew.scrimshaw@enron.com'
p395
sg24
I0
ssS'KOENIG MARK E'
p396
(dp397
g4
I2374
sg35
F0.44096682606567505
sg5
I0
sg9
I700000
sg20
I0
sg12
I1920055
sg13
I127017
sg36
F0.08001469049483408
sg18
I15
sg19
I01
sg7
I300000
sg10
I1248318
sg14
I53
sg3
I309946
sg37
F0.6501470009973672
sg38
F0.6501470009973672
sg6
I1587421
sg15
I671737
sg22
S'mark.koenig@enron.com'
p398
sg11
I0
sg21
I2271
sg8
I0
sg16
I61
sg17
I150458
sg40
F0.08001469049483408
sg41
F0.44096682606567505
sg24
I0
ssS'SAVAGE FRANK'
p399
(dp400
g3
I0
sg4
I0
sg5
I0
sg6
I3750
sg7
I0
sg8
I0
sg9
I0
sg10
I0
sg11
I0
sg12
I0
sg13
I0
sg14
I0
sg15
I0
sg16
I0
sg17
I0
sg18
I0
sg19
I00
sg20
I-121284
sg21
I0
sg22
I0
sg24
I125034
ssS'IZZO LAWRENCE L'
p401
(dp402
g3
I85274
sg4
I496
sg5
I0
sg6
I1979596
sg7
I312500
sg8
I0
sg9
I0
sg10
I3654808
sg11
I0
sg12
I5819980
sg13
I28093
sg14
I28
sg15
I2165172
sg16
I19
sg17
I1553729
sg18
I5
sg19
I00
sg20
I0
sg21
I437
sg22
S'larry.izzo@enron.com'
p403
sg24
I0
ssS'TILNEY ELIZABETH A'
p404
(dp405
g3
I247338
sg4
I460
sg5
I0
sg6
I399393
sg7
I275000
sg8
I0
sg9
I300000
sg10
I576792
sg11
I0
sg12
I1168042
sg13
I0
sg14
I10
sg15
I591250
sg16
I19
sg17
I152055
sg18
I11
sg19
I00
sg20
I-575000
sg21
I379
sg22
S'elizabeth.tilney@enron.com'
p406
sg24
I0
ssS'MARTIN AMANDA K'
p407
(dp408
g3
I349487
sg4
I1522
sg5
I85430
sg6
I8407016
sg7
I5145434
sg8
I0
sg9
I0
sg10
I0
sg11
I0
sg12
I2070306
sg13
I8211
sg14
I8
sg15
I2070306
sg16
I230
sg17
I2818454
sg18
I0
sg19
I00
sg20
I0
sg21
I477
sg22
S'a..martin@enron.com'
p409
sg24
I0
ssS'BUY RICHARD B'
p410
(dp411
g3
I330546
sg4
I3523
sg5
I649584
sg6
I2355702
sg7
I769862
sg8
I0
sg9
I900000
sg10
I901657
sg11
I0
sg12
I3444470
sg13
I0
sg14
I156
sg15
I2542813
sg16
I1053
sg17
I400572
sg18
I71
sg19
I00
sg20
I-694862
sg21
I2333
sg22
S'rick.buy@enron.com'
p412
sg24
I0
ssS'GRAMM WENDY L'
p413
(dp414
g3
I0
sg4
I0
sg5
I0
sg6
I119292
sg7
I0
sg8
I0
sg9
I0
sg10
I0
sg11
I0
sg12
I0
sg13
I0
sg14
I0
sg15
I0
sg16
I0
sg17
I0
sg18
I0
sg19
I00
sg20
I0
sg21
I0
sg22
I0
sg24
I119292
ssS'CAUSEY RICHARD A'
p415
(dp416
g4
I1892
sg35
F0.5351147660638778
sg5
I0
sg9
I1000000
sg20
I-235000
sg12
I2502063
sg13
I30674
sg36
F0.016414110334243386
sg18
I12
sg19
I01
sg7
I350000
sg10
I2502063
sg14
I58
sg3
I415189
sg37
F1.0
sg38
F1.0
sg6
I1868758
sg15
I0
sg22
S'richard.causey@enron.com'
p417
sg11
I0
sg21
I1585
sg8
I0
sg16
I49
sg17
I307895
sg40
F0.016414110334243386
sg41
F0.5351147660638778
sg24
I0
ssS'TAYLOR MITCHELL S'
p418
(dp419
g3
I265214
sg4
I533
sg5
I227449
sg6
I1092663
sg7
I0
sg8
I0
sg9
I600000
sg10
I563798
sg11
I0
sg12
I3745048
sg13
I0
sg14
I0
sg15
I3181250
sg16
I29
sg17
I0
sg18
I0
sg19
I00
sg20
I0
sg21
I300
sg22
S'mitchell.taylor@enron.com'
p420
sg24
I0
ssS'DONAHUE JR JEFFREY M'
p421
(dp422
g3
I278601
sg4
I865
sg5
I0
sg6
I875760
sg7
I0
sg8
I0
sg9
I800000
sg10
I315068
sg11
I0
sg12
I1080988
sg13
I96268
sg14
I188
sg15
I765920
sg16
I22
sg17
I891
sg18
I11
sg19
I00
sg20
I-300000
sg21
I772
sg22
S'jeff.donahue@enron.com'
p423
sg24
I0
ssS'GLISAN JR BEN F'
p424
(dp425
g4
I873
sg35
F0.4715928204709012
sg5
I0
sg9
I600000
sg20
I0
sg12
I778546
sg13
I125978
sg36
F0.09901720056213864
sg18
I6
sg19
I01
sg7
I71023
sg10
I393818
sg14
I52
sg3
I274975
sg37
F0.5058378053448351
sg38
F0.5058378053448351
sg6
I1272284
sg15
I384728
sg22
S'ben.glisan@enron.com'
p426
sg11
I0
sg21
I874
sg8
I0
sg16
I16
sg17
I200308
sg40
F0.09901720056213864
sg41
F0.4715928204709012
sg24
I0
ss.