(lp0
S'poi'
p1
aS'from_messages'
p2
aS'from_poi_to_this_person'
p3
aS'from_this_person_to_poi'
p4
aS'shared_receipt_with_poi'
p5
aS'to_messages'
p6
aS'salary'
p7
aS'bonus'
p8
aS'long_term_incentive'
p9
aS'loan_advances'
p10
aS'other'
p11
aS'expenses'
p12
aS'director_fees'
p13
aS'total_payments'
p14
aS'exercised_stock_options'
p15
aS'restricted_stock'
p16
aS'restricted_stock_deferred'
p17
aS'total_stock_value'
p18
a.